; Function Attrs: mustprogress uwtable
define hidden noundef range(i32 -1, 2) i32 @_ZN4lean12type_checker21is_def_eq_proof_irrelERKNS_4exprES3_(ptr noundef nonnull align 8 dereferenceable(48) %0, ptr noundef nonnull align 8 dereferenceable(8) %1, ptr noundef nonnull align 8 dereferenceable(8) %2) local_unnamed_addr #0 align 2 personality ptr @__gxx_personality_v0 {
  %4 = alloca %"class.lean::expr", align 8
  %5 = alloca %"class.lean::expr", align 8
  call void @llvm.lifetime.start.p0(i64 8, ptr nonnull %4) #19
  call void @_ZN4lean12type_checker15infer_type_coreERKNS_4exprEb(ptr dead_on_unwind nonnull writable sret(%"class.lean::expr") align 8 %4, ptr noundef nonnull align 8 dereferenceable(48) %0, ptr noundef nonnull align 8 dereferenceable(8) %1, i1 noundef zeroext true)
  %6 = invoke noundef zeroext i1 @_ZN4lean12type_checker7is_propERKNS_4exprE(ptr noundef nonnull align 8 dereferenceable(48) %0, ptr noundef nonnull align 8 dereferenceable(8) %4)
          to label %7 unwind label %8

7:                                                ; preds = %3
  br i1 %6, label %10, label %35

8:                                                ; preds = %3
  %9 = landingpad { ptr, i32 }
          cleanup
  br label %49

10:                                               ; preds = %7
  call void @llvm.lifetime.start.p0(i64 8, ptr nonnull %5) #19
  invoke void @_ZN4lean12type_checker15infer_type_coreERKNS_4exprEb(ptr dead_on_unwind nonnull writable sret(%"class.lean::expr") align 8 %5, ptr noundef nonnull align 8 dereferenceable(48) %0, ptr noundef nonnull align 8 dereferenceable(8) %2, i1 noundef zeroext true)
          to label %_ZN4lean12type_checker10infer_typeERKNS_4exprE.exit unwind label %30

_ZN4lean12type_checker10infer_typeERKNS_4exprE.exit: ; preds = %10
  %11 = invoke noundef zeroext i1 @_ZN4lean12type_checker14is_def_eq_coreERKNS_4exprES3_(ptr noundef nonnull align 8 dereferenceable(48) %0, ptr noundef nonnull align 8 dereferenceable(8) %4, ptr noundef nonnull align 8 dereferenceable(8) %5)
          to label %.noexc unwind label %32

.noexc:                                           ; preds = %_ZN4lean12type_checker10infer_typeERKNS_4exprE.exit
  br i1 %11, label %12, label %_ZN4lean12type_checker9is_def_eqERKNS_4exprES3_.exit

12:                                               ; preds = %.noexc
  %13 = getelementptr inbounds nuw i8, ptr %0, i64 8
  %14 = load ptr, ptr %13, align 8, !tbaa !31
  %15 = getelementptr inbounds nuw i8, ptr %14, i64 248
  invoke void @_ZN4lean13equiv_manager9add_equivERKNS_4exprES3_(ptr noundef nonnull align 8 dereferenceable(81) %15, ptr noundef nonnull align 8 dereferenceable(8) %4, ptr noundef nonnull align 8 dereferenceable(8) %5)
          to label %_ZN4lean12type_checker9is_def_eqERKNS_4exprES3_.exit unwind label %32

_ZN4lean12type_checker9is_def_eqERKNS_4exprES3_.exit: ; preds = %.noexc, %12
  %16 = phi i32 [ -1, %.noexc ], [ 1, %12 ]
  %17 = load ptr, ptr %5, align 8, !tbaa !3
  %18 = ptrtoint ptr %17 to i64
  %19 = and i64 %18, 1
  %.not.i.i = icmp eq i64 %19, 0
  br i1 %.not.i.i, label %20, label %_ZN4lean10object_refD2Ev.exit

20:                                               ; preds = %_ZN4lean12type_checker9is_def_eqERKNS_4exprES3_.exit
  %21 = load i32, ptr %17, align 4, !tbaa !8
  %22 = icmp sgt i32 %21, 1
  br i1 %22, label %23, label %25, !prof !11

23:                                               ; preds = %20
  %24 = add nsw i32 %21, -1
  store i32 %24, ptr %17, align 4, !tbaa !8
  br label %_ZN4lean10object_refD2Ev.exit

25:                                               ; preds = %20
  %.not.i.i.i.i = icmp eq i32 %21, 0
  br i1 %.not.i.i.i.i, label %_ZN4lean10object_refD2Ev.exit, label %26

26:                                               ; preds = %25
  invoke void @lean_dec_ref_cold(ptr noundef nonnull %17)
          to label %_ZN4lean10object_refD2Ev.exit unwind label %27

27:                                               ; preds = %26
  %28 = landingpad { ptr, i32 }
          catch ptr null
  %29 = extractvalue { ptr, i32 } %28, 0
  call void @__clang_call_terminate(ptr %29) #21
  unreachable

_ZN4lean10object_refD2Ev.exit:                    ; preds = %_ZN4lean12type_checker9is_def_eqERKNS_4exprES3_.exit, %23, %25, %26
  call void @llvm.lifetime.end.p0(i64 8, ptr nonnull %5) #19
  br label %35

30:                                               ; preds = %10
  %31 = landingpad { ptr, i32 }
          cleanup
  br label %34

32:                                               ; preds = %12, %_ZN4lean12type_checker10infer_typeERKNS_4exprE.exit
  %33 = landingpad { ptr, i32 }
          cleanup
  call void @_ZN4lean10object_refD2Ev(ptr noundef nonnull align 8 dereferenceable(8) %5) #19
  br label %34

34:                                               ; preds = %32, %30
  %.pn = phi { ptr, i32 } [ %33, %32 ], [ %31, %30 ]
  call void @llvm.lifetime.end.p0(i64 8, ptr nonnull %5) #19
  br label %49

35:                                               ; preds = %7, %_ZN4lean10object_refD2Ev.exit
  %.07 = phi i32 [ %16, %_ZN4lean10object_refD2Ev.exit ], [ 0, %7 ]
  %36 = load ptr, ptr %4, align 8, !tbaa !3
  %37 = ptrtoint ptr %36 to i64
  %38 = and i64 %37, 1
  %.not.i.i11 = icmp eq i64 %38, 0
  br i1 %.not.i.i11, label %39, label %_ZN4lean10object_refD2Ev.exit13

39:                                               ; preds = %35
  %40 = load i32, ptr %36, align 4, !tbaa !8
  %41 = icmp sgt i32 %40, 1
  br i1 %41, label %42, label %44, !prof !11

42:                                               ; preds = %39
  %43 = add nsw i32 %40, -1
  store i32 %43, ptr %36, align 4, !tbaa !8
  br label %_ZN4lean10object_refD2Ev.exit13

44:                                               ; preds = %39
  %.not.i.i.i.i12 = icmp eq i32 %40, 0
  br i1 %.not.i.i.i.i12, label %_ZN4lean10object_refD2Ev.exit13, label %45

45:                                               ; preds = %44
  invoke void @lean_dec_ref_cold(ptr noundef nonnull %36)
          to label %_ZN4lean10object_refD2Ev.exit13 unwind label %46

46:                                               ; preds = %45
  %47 = landingpad { ptr, i32 }
          catch ptr null
  %48 = extractvalue { ptr, i32 } %47, 0
  call void @__clang_call_terminate(ptr %48) #21
  unreachable

_ZN4lean10object_refD2Ev.exit13:                  ; preds = %35, %42, %44, %45
  call void @llvm.lifetime.end.p0(i64 8, ptr nonnull %4) #19
  ret i32 %.07

49:                                               ; preds = %34, %8
  %.pn.pn = phi { ptr, i32 } [ %.pn, %34 ], [ %9, %8 ]
  call void @_ZN4lean10object_refD2Ev(ptr noundef nonnull align 8 dereferenceable(8) %4) #19
  call void @llvm.lifetime.end.p0(i64 8, ptr nonnull %4) #19
  resume { ptr, i32 } %.pn.pn
}